target datalayout = "e-m:e-p270:32:32-p271:32:32-p272:64:64-i64:64-i128:128-f80:128-n8:16:32:64-S128"
target triple = "x86_64-unknown-linux-gnu"

%"class.node::MemoryRetainer" = type { ptr }
%"class.node::AsyncWrap" = type { %"class.node::BaseObject", i32, i8, double, double }
%"class.node::BaseObject" = type { %"class.node::MemoryRetainer", %"class.v8::Global", ptr, ptr }
%"class.v8::Global" = type { %"class.v8::PersistentBase" }
%"class.v8::PersistentBase" = type { %"class.v8::IndirectHandleBase" }
%"class.v8::IndirectHandleBase" = type { ptr }
%"class.node::BaseObjectPtrImpl" = type { %union.anon.13 }
%union.anon.13 = type { ptr }
%"class.node::fs::FileHandle" = type { %"class.node::AsyncWrap", %"class.node::StreamBase", i32, i8, i8, i8, i64, i64, %"class.node::BaseObjectPtrImpl.14", %"class.node::BaseObjectPtrImpl" }
%"class.node::StreamBase" = type { %"class.node::StreamResource", ptr, %"class.node::EmitToJSStreamListener" }
%"class.node::StreamResource" = type { ptr, ptr, i64, i64 }
%"class.node::EmitToJSStreamListener" = type { %"class.node::ReportWritesToJSStreamListener" }
%"class.node::ReportWritesToJSStreamListener" = type { %"class.node::StreamListener" }
%"class.node::StreamListener" = type { ptr, ptr, ptr }
%"class.node::BaseObjectPtrImpl.14" = type { %union.anon.15 }
%union.anon.15 = type { ptr }

; Function Attrs: mustprogress nounwind uwtable
define dso_local noundef i32 @_ZNK4node2fs10FileHandle15GetTransferModeEv(ptr noundef nonnull align 8 dereferenceable(160) %this) unnamed_addr #4 align 2 {
entry:
  %this.addr = alloca ptr, align 8
  store ptr %this, ptr %this.addr, align 8
  %this1 = load ptr, ptr %this.addr, align 8
  %reading_ = getelementptr inbounds %"class.node::fs::FileHandle", ptr %this1, i32 0, i32 5
  %0 = load i8, ptr %reading_, align 2
  %tobool = trunc i8 %0 to i1
  br i1 %tobool, label %lor.end, label %lor.lhs.false

lor.lhs.false:                                    ; preds = %entry
  %closing_ = getelementptr inbounds %"class.node::fs::FileHandle", ptr %this1, i32 0, i32 3
  %1 = load i8, ptr %closing_, align 4
  %tobool2 = trunc i8 %1 to i1
  br i1 %tobool2, label %lor.end, label %lor.rhs

lor.rhs:                                          ; preds = %lor.lhs.false
  %closed_ = getelementptr inbounds %"class.node::fs::FileHandle", ptr %this1, i32 0, i32 4
  %2 = load i8, ptr %closed_, align 1
  %tobool3 = trunc i8 %2 to i1
  br label %lor.end

lor.end:                                          ; preds = %lor.rhs, %lor.lhs.false, %entry
  %3 = phi i1 [ true, %lor.lhs.false ], [ true, %entry ], [ %tobool3, %lor.rhs ]
  %cond = select i1 %3, i32 0, i32 1
  ret i32 %cond
}