; Function Attrs: mustprogress nofree norecurse nosync nounwind willreturn memory(argmem: read) uwtable
define dso_local noundef i32 @_ZNK4node2fs10FileHandle15GetTransferModeEv(ptr nocapture noundef nonnull readonly align 8 dereferenceable(160) %this) unnamed_addr #13 align 2 {
entry:
  %reading_ = getelementptr inbounds i8, ptr %this, i64 126
  %0 = load i8, ptr %reading_, align 2
  %1 = and i8 %0, 1
  %tobool.not = icmp eq i8 %1, 0
  br i1 %tobool.not, label %lor.lhs.false, label %lor.end

lor.lhs.false:                                    ; preds = %entry
  %closing_ = getelementptr inbounds i8, ptr %this, i64 124
  %2 = load i8, ptr %closing_, align 4
  %3 = and i8 %2, 1
  %tobool2.not = icmp eq i8 %3, 0
  br i1 %tobool2.not, label %lor.rhs, label %lor.end

lor.rhs:                                          ; preds = %lor.lhs.false
  %closed_ = getelementptr inbounds i8, ptr %this, i64 125
  %4 = load i8, ptr %closed_, align 1
  %5 = and i8 %4, 1
  %6 = xor i8 %5, 1
  %7 = zext nneg i8 %6 to i32
  br label %lor.end

lor.end:                                          ; preds = %lor.rhs, %lor.lhs.false, %entry
  %not. = phi i32 [ 0, %lor.lhs.false ], [ 0, %entry ], [ %7, %lor.rhs ]
  ret i32 %not.
}